; Function Attrs: mustprogress uwtable
define { <2 x float>, float } @_ZN21EditMutualCorrsPlugin17fromPickedToImageEN3vcg6Point2IfEE(ptr nocapture noundef nonnull readonly align 8 dereferenceable(536) %0, <2 x float> %1) local_unnamed_addr #13 align 2 {
  %3 = getelementptr inbounds i8, ptr %0, i64 64
  %4 = load ptr, ptr %3, align 8
  %5 = getelementptr inbounds i8, ptr %4, i64 40
  %6 = load ptr, ptr %5, align 8
  %7 = getelementptr inbounds i8, ptr %6, i64 20
  %8 = getelementptr inbounds i8, ptr %6, i64 28
  %9 = load i32, ptr %8, align 4
  %10 = load i32, ptr %7, align 4
  %11 = add i32 %9, 1
  %12 = sub i32 %11, %10
  %13 = getelementptr inbounds i8, ptr %6, i64 32
  %14 = load i32, ptr %13, align 4
  %15 = getelementptr inbounds i8, ptr %6, i64 24
  %16 = load i32, ptr %15, align 4
  %17 = add i32 %14, 1
  %18 = sub i32 %17, %16
  %19 = getelementptr inbounds i8, ptr %4, i64 56
  %20 = load ptr, ptr %19, align 8
  %21 = icmp eq ptr %20, null
  %22 = getelementptr inbounds i8, ptr %20, i64 48
  %spec.select.i = select i1 %21, ptr null, ptr %22
  %23 = tail call noundef ptr @_ZN12MeshDocument2rmEv(ptr noundef nonnull align 8 dereferenceable(192) %spec.select.i)
  %24 = getelementptr inbounds i8, ptr %23, i64 144
  %25 = load ptr, ptr %24, align 8
  %26 = getelementptr inbounds i8, ptr %25, i64 16
  %27 = tail call noundef i32 @_ZNK6QImage5widthEv(ptr noundef nonnull align 8 dereferenceable(32) %26)
  %28 = load ptr, ptr %3, align 8
  %29 = getelementptr inbounds i8, ptr %28, i64 56
  %30 = load ptr, ptr %29, align 8
  %31 = icmp eq ptr %30, null
  %32 = getelementptr inbounds i8, ptr %30, i64 48
  %spec.select.i13 = select i1 %31, ptr null, ptr %32
  %33 = tail call noundef ptr @_ZN12MeshDocument2rmEv(ptr noundef nonnull align 8 dereferenceable(192) %spec.select.i13)
  %34 = getelementptr inbounds i8, ptr %33, i64 144
  %35 = load ptr, ptr %34, align 8
  %36 = getelementptr inbounds i8, ptr %35, i64 16
  %37 = tail call noundef i32 @_ZNK6QImage6heightEv(ptr noundef nonnull align 8 dereferenceable(32) %36)
  %38 = sitofp i32 %37 to double
  %39 = sitofp i32 %18 to double
  %40 = fdiv double %38, %39
  %41 = sitofp i32 %12 to double
  %42 = fmul double %41, 5.000000e-01
  %43 = fptosi double %42 to i32
  %44 = sitofp i32 %43 to float
  %.sroa.015.0.vec.extract = extractelement <2 x float> %1, i64 0
  %45 = fsub float %44, %.sroa.015.0.vec.extract
  %46 = fptosi float %45 to i32
  %47 = insertelement <2 x i32> poison, i32 %27, i64 0
  %48 = insertelement <2 x i32> %47, i32 %46, i64 1
  %49 = sitofp <2 x i32> %48 to <2 x double>
  %50 = insertelement <2 x double> <double 5.000000e-01, double poison>, double %40, i64 1
  %51 = fmul <2 x double> %50, %49
  %52 = fptosi <2 x double> %51 to <2 x i32>
  %shift = shufflevector <2 x i32> %52, <2 x i32> poison, <2 x i32> <i32 1, i32 poison>
  %53 = sub nsw <2 x i32> %52, %shift
  %.sroa.015.4.vec.extract = extractelement <2 x float> %1, i64 1
  %54 = fpext float %.sroa.015.4.vec.extract to double
  %55 = fmul double %40, %54
  %56 = fptosi double %55 to i32
  %57 = insertelement <2 x i32> %53, i32 %56, i64 1
  %58 = sitofp <2 x i32> %57 to <2 x float>
  %.fca.0.insert = insertvalue { <2 x float>, float } poison, <2 x float> %58, 0
  %.fca.1.insert = insertvalue { <2 x float>, float } %.fca.0.insert, float 0.000000e+00, 1
  ret { <2 x float>, float } %.fca.1.insert
}